target datalayout = "e-m:e-p270:32:32-p271:32:32-p272:64:64-i64:64-i128:128-f80:128-n8:16:32:64-S128"
target triple = "x86_64-pc-linux-gnu"

%struct.AVRational = type { i32, i32 }
%struct.AVFrame = type { [8 x ptr], [8 x i32], ptr, i32, i32, i32, i32, i32, %struct.AVRational, i64, i64, %struct.AVRational, i32, ptr, i32, i32, [8 x ptr], ptr, i32, ptr, i32, i32, i32, i32, i32, i32, i32, i64, ptr, i32, ptr, ptr, i64, i64, i64, i64, ptr, %struct.AVChannelLayout, i64 }
%struct.AVChannelLayout = type { i32, i32, %union.anon, ptr }
%union.anon = type { i64 }
%struct.AVPixFmtDescriptor = type { ptr, i8, i8, i8, i64, [4 x %struct.AVComponentDescriptor], ptr }
%struct.AVComponentDescriptor = type { i32, i32, i32, i32, i32 }

; Function Attrs: nounwind uwtable
define internal i32 @calc_cropping_offsets(ptr noundef %0, ptr noundef %1, ptr noundef %2) #0 {
  %4 = alloca i32, align 4
  %5 = alloca ptr, align 8
  %6 = alloca ptr, align 8
  %7 = alloca ptr, align 8
  %8 = alloca i32, align 4
  %9 = alloca i32, align 4
  %10 = alloca ptr, align 8
  %11 = alloca i32, align 4
  %12 = alloca i32, align 4
  %13 = alloca i32, align 4
  store ptr %0, ptr %5, align 8, !tbaa !112
  store ptr %1, ptr %6, align 8, !tbaa !4
  store ptr %2, ptr %7, align 8, !tbaa !46
  call void @llvm.lifetime.start.p0(i64 4, ptr %8) #7
  store i32 0, ptr %8, align 4, !tbaa !27
  br label %14

14:                                               ; preds = %131, %3
  %15 = load ptr, ptr %6, align 8, !tbaa !4
  %16 = getelementptr inbounds nuw %struct.AVFrame, ptr %15, i32 0, i32 0
  %17 = load i32, ptr %8, align 4, !tbaa !27
  %18 = sext i32 %17 to i64
  %19 = getelementptr inbounds [8 x ptr], ptr %16, i64 0, i64 %18
  %20 = load ptr, ptr %19, align 8, !tbaa !58
  %21 = icmp ne ptr %20, null
  br i1 %21, label %23, label %22

22:                                               ; preds = %14
  store i32 2, ptr %9, align 4
  br label %134

23:                                               ; preds = %14
  call void @llvm.lifetime.start.p0(i64 8, ptr %10) #7
  store ptr null, ptr %10, align 8, !tbaa !114
  call void @llvm.lifetime.start.p0(i64 4, ptr %11) #7
  %24 = load i32, ptr %8, align 4, !tbaa !27
  %25 = icmp eq i32 %24, 1
  br i1 %25, label %29, label %26

26:                                               ; preds = %23
  %27 = load i32, ptr %8, align 4, !tbaa !27
  %28 = icmp eq i32 %27, 2
  br i1 %28, label %29, label %34

29:                                               ; preds = %26, %23
  %30 = load ptr, ptr %7, align 8, !tbaa !46
  %31 = getelementptr inbounds nuw %struct.AVPixFmtDescriptor, ptr %30, i32 0, i32 2
  %32 = load i8, ptr %31, align 1, !tbaa !116
  %33 = zext i8 %32 to i32
  br label %35

34:                                               ; preds = %26
  br label %35

35:                                               ; preds = %34, %29
  %36 = phi i32 [ %33, %29 ], [ 0, %34 ]
  store i32 %36, ptr %11, align 4, !tbaa !27
  call void @llvm.lifetime.start.p0(i64 4, ptr %12) #7
  %37 = load i32, ptr %8, align 4, !tbaa !27
  %38 = icmp eq i32 %37, 1
  br i1 %38, label %42, label %39

39:                                               ; preds = %35
  %40 = load i32, ptr %8, align 4, !tbaa !27
  %41 = icmp eq i32 %40, 2
  br i1 %41, label %42, label %47

42:                                               ; preds = %39, %35
  %43 = load ptr, ptr %7, align 8, !tbaa !46
  %44 = getelementptr inbounds nuw %struct.AVPixFmtDescriptor, ptr %43, i32 0, i32 3
  %45 = load i8, ptr %44, align 2, !tbaa !117
  %46 = zext i8 %45 to i32
  br label %48

47:                                               ; preds = %39
  br label %48

48:                                               ; preds = %47, %42
  %49 = phi i32 [ %46, %42 ], [ 0, %47 ]
  store i32 %49, ptr %12, align 4, !tbaa !27
  %50 = load ptr, ptr %7, align 8, !tbaa !46
  %51 = getelementptr inbounds nuw %struct.AVPixFmtDescriptor, ptr %50, i32 0, i32 4
  %52 = load i64, ptr %51, align 8, !tbaa !108
  %53 = and i64 %52, 2
  %54 = icmp ne i64 %53, 0
  br i1 %54, label %55, label %63

55:                                               ; preds = %48
  %56 = load i32, ptr %8, align 4, !tbaa !27
  %57 = icmp eq i32 %56, 1
  br i1 %57, label %58, label %63

58:                                               ; preds = %55
  %59 = load ptr, ptr %5, align 8, !tbaa !112
  %60 = load i32, ptr %8, align 4, !tbaa !27
  %61 = sext i32 %60 to i64
  %62 = getelementptr inbounds i64, ptr %59, i64 %61
  store i64 0, ptr %62, align 8, !tbaa !50
  store i32 2, ptr %9, align 4
  br label %128

63:                                               ; preds = %55, %48
  call void @llvm.lifetime.start.p0(i64 4, ptr %13) #7
  store i32 0, ptr %13, align 4, !tbaa !27
  br label %64

64:                                               ; preds = %89, %63
  %65 = load i32, ptr %13, align 4, !tbaa !27
  %66 = load ptr, ptr %7, align 8, !tbaa !46
  %67 = getelementptr inbounds nuw %struct.AVPixFmtDescriptor, ptr %66, i32 0, i32 1
  %68 = load i8, ptr %67, align 8, !tbaa !118
  %69 = zext i8 %68 to i32
  %70 = icmp slt i32 %65, %69
  br i1 %70, label %72, label %71

71:                                               ; preds = %64
  store i32 5, ptr %9, align 4
  br label %92

72:                                               ; preds = %64
  %73 = load ptr, ptr %7, align 8, !tbaa !46
  %74 = getelementptr inbounds nuw %struct.AVPixFmtDescriptor, ptr %73, i32 0, i32 5
  %75 = load i32, ptr %13, align 4, !tbaa !27
  %76 = sext i32 %75 to i64
  %77 = getelementptr inbounds [4 x %struct.AVComponentDescriptor], ptr %74, i64 0, i64 %76
  %78 = getelementptr inbounds nuw %struct.AVComponentDescriptor, ptr %77, i32 0, i32 0
  %79 = load i32, ptr %78, align 4, !tbaa !119
  %80 = load i32, ptr %8, align 4, !tbaa !27
  %81 = icmp eq i32 %79, %80
  br i1 %81, label %82, label %88

82:                                               ; preds = %72
  %83 = load ptr, ptr %7, align 8, !tbaa !46
  %84 = getelementptr inbounds nuw %struct.AVPixFmtDescriptor, ptr %83, i32 0, i32 5
  %85 = load i32, ptr %13, align 4, !tbaa !27
  %86 = sext i32 %85 to i64
  %87 = getelementptr inbounds [4 x %struct.AVComponentDescriptor], ptr %84, i64 0, i64 %86
  store ptr %87, ptr %10, align 8, !tbaa !114
  store i32 5, ptr %9, align 4
  br label %92

88:                                               ; preds = %72
  br label %89

89:                                               ; preds = %88
  %90 = load i32, ptr %13, align 4, !tbaa !27
  %91 = add nsw i32 %90, 1
  store i32 %91, ptr %13, align 4, !tbaa !27
  br label %64, !llvm.loop !121

92:                                               ; preds = %82, %71
  call void @llvm.lifetime.end.p0(i64 4, ptr %13) #7
  br label %93

93:                                               ; preds = %92
  %94 = load ptr, ptr %10, align 8, !tbaa !114
  %95 = icmp ne ptr %94, null
  br i1 %95, label %97, label %96

96:                                               ; preds = %93
  store i32 -558323010, ptr %4, align 4
  store i32 1, ptr %9, align 4
  br label %128

97:                                               ; preds = %93
  %98 = load ptr, ptr %6, align 8, !tbaa !4
  %99 = getelementptr inbounds nuw %struct.AVFrame, ptr %98, i32 0, i32 32
  %100 = load i64, ptr %99, align 8, !tbaa !67
  %101 = load i32, ptr %12, align 4, !tbaa !27
  %102 = zext i32 %101 to i64
  %103 = lshr i64 %100, %102
  %104 = load ptr, ptr %6, align 8, !tbaa !4
  %105 = getelementptr inbounds nuw %struct.AVFrame, ptr %104, i32 0, i32 1
  %106 = load i32, ptr %8, align 4, !tbaa !27
  %107 = sext i32 %106 to i64
  %108 = getelementptr inbounds [8 x i32], ptr %105, i64 0, i64 %107
  %109 = load i32, ptr %108, align 4, !tbaa !27
  %110 = sext i32 %109 to i64
  %111 = mul i64 %103, %110
  %112 = load ptr, ptr %6, align 8, !tbaa !4
  %113 = getelementptr inbounds nuw %struct.AVFrame, ptr %112, i32 0, i32 34
  %114 = load i64, ptr %113, align 8, !tbaa !69
  %115 = load i32, ptr %11, align 4, !tbaa !27
  %116 = zext i32 %115 to i64
  %117 = lshr i64 %114, %116
  %118 = load ptr, ptr %10, align 8, !tbaa !114
  %119 = getelementptr inbounds nuw %struct.AVComponentDescriptor, ptr %118, i32 0, i32 1
  %120 = load i32, ptr %119, align 4, !tbaa !122
  %121 = sext i32 %120 to i64
  %122 = mul i64 %117, %121
  %123 = add i64 %111, %122
  %124 = load ptr, ptr %5, align 8, !tbaa !112
  %125 = load i32, ptr %8, align 4, !tbaa !27
  %126 = sext i32 %125 to i64
  %127 = getelementptr inbounds i64, ptr %124, i64 %126
  store i64 %123, ptr %127, align 8, !tbaa !50
  store i32 0, ptr %9, align 4
  br label %128

128:                                              ; preds = %97, %96, %58
  call void @llvm.lifetime.end.p0(i64 4, ptr %12) #7
  call void @llvm.lifetime.end.p0(i64 4, ptr %11) #7
  call void @llvm.lifetime.end.p0(i64 8, ptr %10) #7
  %129 = load i32, ptr %9, align 4
  switch i32 %129, label %134 [
    i32 0, label %130
  ]

130:                                              ; preds = %128
  br label %131

131:                                              ; preds = %130
  %132 = load i32, ptr %8, align 4, !tbaa !27
  %133 = add nsw i32 %132, 1
  store i32 %133, ptr %8, align 4, !tbaa !27
  br label %14, !llvm.loop !123

134:                                              ; preds = %128, %22
  call void @llvm.lifetime.end.p0(i64 4, ptr %8) #7
  %135 = load i32, ptr %9, align 4
  switch i32 %135, label %139 [
    i32 2, label %136
    i32 1, label %137
  ]

136:                                              ; preds = %134
  store i32 0, ptr %4, align 4
  br label %137

137:                                              ; preds = %136, %134
  %138 = load i32, ptr %4, align 4
  ret i32 %138

139:                                              ; preds = %134
  unreachable
}