; Function Attrs: nofree norecurse nosync nounwind memory(argmem: readwrite) uwtable
define internal fastcc range(i32 -558323010, 1) i32 @calc_cropping_offsets(ptr noundef nonnull writeonly captures(none) %0, ptr noundef readonly captures(none) %1, ptr noundef nonnull readonly captures(none) %2) unnamed_addr #6 {
  %4 = load ptr, ptr %1, align 8, !tbaa !47
  %.not55 = icmp eq ptr %4, null
  br i1 %.not55, label %.thread47, label %.lr.ph57

.lr.ph57:                                         ; preds = %3
  %5 = getelementptr inbounds nuw i8, ptr %2, i64 9
  %6 = getelementptr inbounds nuw i8, ptr %2, i64 10
  %7 = getelementptr inbounds nuw i8, ptr %2, i64 16
  %8 = getelementptr inbounds nuw i8, ptr %2, i64 8
  %9 = getelementptr inbounds nuw i8, ptr %2, i64 24
  %10 = getelementptr inbounds nuw i8, ptr %1, i64 344
  %11 = getelementptr inbounds nuw i8, ptr %1, i64 64
  %12 = getelementptr inbounds nuw i8, ptr %1, i64 360
  br label %13

13:                                               ; preds = %.lr.ph57, %36
  %indvars.iv65 = phi i64 [ 0, %.lr.ph57 ], [ %indvars.iv.next66, %36 ]
  %14 = icmp eq i64 %indvars.iv65, 1
  %15 = trunc i64 %indvars.iv65 to i32
  %16 = add i32 %15, -1
  %or.cond = icmp ult i32 %16, 2
  br i1 %or.cond, label %17, label %22

17:                                               ; preds = %13
  %18 = load i8, ptr %5, align 1, !tbaa !104
  %19 = zext i8 %18 to i64
  %20 = load i8, ptr %6, align 2, !tbaa !105
  %21 = zext i8 %20 to i64
  br label %22

22:                                               ; preds = %13, %17
  %23 = phi i64 [ %19, %17 ], [ 0, %13 ]
  %24 = phi i64 [ %21, %17 ], [ 0, %13 ]
  %25 = load i64, ptr %7, align 8, !tbaa !101
  %26 = and i64 %25, 2
  %27 = icmp ne i64 %26, 0
  %or.cond5 = and i1 %14, %27
  br i1 %or.cond5, label %29, label %.preheader

.preheader:                                       ; preds = %22
  %28 = load i8, ptr %8, align 8, !tbaa !103
  %.not58 = icmp eq i8 %28, 0
  br i1 %.not58, label %.thread47, label %.lr.ph.preheader

.lr.ph.preheader:                                 ; preds = %.preheader
  %wide.trip.count = zext i8 %28 to i64
  br label %.lr.ph

29:                                               ; preds = %22
  %30 = getelementptr inbounds nuw i8, ptr %0, i64 8
  store i64 0, ptr %30, align 8, !tbaa !39
  br label %.thread47

31:                                               ; preds = %.lr.ph
  %indvars.iv.next = add nuw nsw i64 %indvars.iv, 1
  %exitcond.not = icmp eq i64 %indvars.iv.next, %wide.trip.count
  br i1 %exitcond.not, label %.thread47, label %.lr.ph, !llvm.loop !108

.lr.ph:                                           ; preds = %.lr.ph.preheader, %31
  %indvars.iv = phi i64 [ 0, %.lr.ph.preheader ], [ %indvars.iv.next, %31 ]
  %32 = getelementptr inbounds nuw [4 x %struct.AVComponentDescriptor], ptr %9, i64 0, i64 %indvars.iv
  %33 = load i32, ptr %32, align 4, !tbaa !106
  %34 = zext i32 %33 to i64
  %35 = icmp eq i64 %indvars.iv65, %34
  br i1 %35, label %36, label %31

36:                                               ; preds = %.lr.ph
  %37 = load i64, ptr %10, align 8, !tbaa !57
  %38 = lshr i64 %37, %24
  %39 = getelementptr inbounds nuw [8 x i32], ptr %11, i64 0, i64 %indvars.iv65
  %40 = load i32, ptr %39, align 4, !tbaa !22
  %41 = sext i32 %40 to i64
  %42 = mul i64 %38, %41
  %43 = load i64, ptr %12, align 8, !tbaa !59
  %44 = lshr i64 %43, %23
  %45 = getelementptr inbounds nuw i8, ptr %32, i64 4
  %46 = load i32, ptr %45, align 4, !tbaa !109
  %47 = sext i32 %46 to i64
  %48 = mul i64 %44, %47
  %49 = add i64 %48, %42
  %50 = getelementptr inbounds nuw i64, ptr %0, i64 %indvars.iv65
  store i64 %49, ptr %50, align 8, !tbaa !39
  %indvars.iv.next66 = add nuw nsw i64 %indvars.iv65, 1
  %51 = getelementptr inbounds nuw [8 x ptr], ptr %1, i64 0, i64 %indvars.iv.next66
  %52 = load ptr, ptr %51, align 8, !tbaa !47
  %.not = icmp eq ptr %52, null
  br i1 %.not, label %.thread47, label %13, !llvm.loop !110

.thread47:                                        ; preds = %36, %.preheader, %31, %3, %29
  %switch = phi i32 [ 0, %29 ], [ 0, %3 ], [ -558323010, %31 ], [ -558323010, %.preheader ], [ 0, %36 ]
  ret i32 %switch
}